CCS PCM C Compiler, Version 5.015, 5967               06-abr.-18 21:13

               Filename:   C:\Users\Mario\Documents\Tesis Pic Mario Mendoza\main.lst

               ROM used:   1056 words (13%)
                           Largest free fragment is 2048
               RAM used:   9 (2%) at main() level
                           37 (10%) worst case
               Stack used: 2 locations
               Stack size: 8

*
0000:  MOVLW  03
0001:  MOVWF  0A
0002:  GOTO   30F
0003:  NOP
.................... #include <main.h> 
.................... #include <16F887.h> 
.................... //////////// Standard Header file for the PIC16F887 device //////////////// 
.................... /////////////////////////////////////////////////////////////////////////// 
.................... ////        (C) Copyright 1996, 2013 Custom Computer Services          //// 
.................... //// This source code may only be used by licensed users of the CCS C  //// 
.................... //// compiler.  This source code may only be distributed to other      //// 
.................... //// licensed users of the CCS C compiler.  No other use, reproduction //// 
.................... //// or distribution is permitted without written permission.          //// 
.................... //// Derivative programs created using this software in object code    //// 
.................... //// form are not restricted in any way.                               //// 
.................... /////////////////////////////////////////////////////////////////////////// 
.................... #device PIC16F887 
0004:  DATA CC,3A
0005:  DATA 7A,10
0006:  DATA 3D,10
0007:  DATA A5,18
0008:  DATA 2E,19
0009:  DATA E6,06
000A:  DATA 0A,00
000B:  DATA CD,28
000C:  DATA 32,10
000D:  DATA 3D,10
000E:  DATA A5,18
000F:  DATA 2E,19
0010:  DATA E6,06
0011:  DATA 0A,00
*
0027:  MOVLW  8E
0028:  MOVWF  77
0029:  MOVF   28,W
002A:  MOVWF  78
002B:  MOVF   27,W
002C:  MOVWF  79
002D:  CLRF   7A
002E:  MOVF   78,F
002F:  BTFSS  03.2
0030:  GOTO   03B
0031:  MOVF   79,W
0032:  MOVWF  78
0033:  CLRF   79
0034:  MOVLW  08
0035:  SUBWF  77,F
0036:  MOVF   78,F
0037:  BTFSS  03.2
0038:  GOTO   03B
0039:  CLRF   77
003A:  GOTO   043
003B:  BCF    03.0
003C:  BTFSC  78.7
003D:  GOTO   042
003E:  RLF    79,F
003F:  RLF    78,F
0040:  DECF   77,F
0041:  GOTO   03B
0042:  BCF    78.7
0043:  RETURN
0044:  MOVF   34,W
0045:  BTFSC  03.2
0046:  GOTO   0B4
0047:  MOVWF  3C
0048:  MOVF   38,W
0049:  BTFSC  03.2
004A:  GOTO   0B4
004B:  ADDWF  3C,F
004C:  BTFSC  03.0
004D:  GOTO   055
004E:  MOVLW  7F
004F:  SUBWF  3C,F
0050:  BTFSS  03.0
0051:  GOTO   0B4
0052:  BTFSC  03.2
0053:  GOTO   0B4
0054:  GOTO   059
0055:  MOVLW  81
0056:  ADDWF  3C,F
0057:  BTFSC  03.0
0058:  GOTO   0B4
0059:  MOVF   3C,W
005A:  MOVWF  77
005B:  CLRF   78
005C:  CLRF   79
005D:  CLRF   7A
005E:  MOVF   35,W
005F:  MOVWF  40
0060:  BSF    40.7
0061:  MOVF   36,W
0062:  MOVWF  3F
0063:  MOVF   37,W
0064:  MOVWF  3E
0065:  MOVLW  18
0066:  MOVWF  3C
0067:  CLRF   3D
0068:  BTFSS  3E.0
0069:  GOTO   082
006A:  MOVF   3B,W
006B:  ADDWF  7A,F
006C:  BTFSS  03.0
006D:  GOTO   074
006E:  INCF   79,F
006F:  BTFSS  03.2
0070:  GOTO   074
0071:  INCF   78,F
0072:  BTFSC  03.2
0073:  BSF    3D.7
0074:  MOVF   3A,W
0075:  ADDWF  79,F
0076:  BTFSS  03.0
0077:  GOTO   07B
0078:  INCF   78,F
0079:  BTFSC  03.2
007A:  BSF    3D.7
007B:  MOVF   39,W
007C:  MOVWF  36
007D:  BSF    36.7
007E:  MOVF   36,W
007F:  ADDWF  78,F
0080:  BTFSC  03.0
0081:  BSF    3D.7
0082:  RLF    3D,F
0083:  RRF    78,F
0084:  RRF    79,F
0085:  RRF    7A,F
0086:  RRF    40,F
0087:  RRF    3F,F
0088:  RRF    3E,F
0089:  BCF    03.0
008A:  DECFSZ 3C,F
008B:  GOTO   067
008C:  MOVLW  01
008D:  ADDWF  77,F
008E:  BTFSC  03.0
008F:  GOTO   0B4
0090:  BTFSC  78.7
0091:  GOTO   099
0092:  RLF    40,F
0093:  RLF    7A,F
0094:  RLF    79,F
0095:  RLF    78,F
0096:  DECF   77,F
0097:  BTFSC  03.2
0098:  GOTO   0B4
0099:  BTFSS  40.7
009A:  GOTO   0AA
009B:  INCF   7A,F
009C:  BTFSS  03.2
009D:  GOTO   0AA
009E:  INCF   79,F
009F:  BTFSS  03.2
00A0:  GOTO   0AA
00A1:  INCF   78,F
00A2:  BTFSS  03.2
00A3:  GOTO   0AA
00A4:  RRF    78,F
00A5:  RRF    79,F
00A6:  RRF    7A,F
00A7:  INCF   77,F
00A8:  BTFSC  03.2
00A9:  GOTO   0B4
00AA:  MOVF   35,W
00AB:  MOVWF  3D
00AC:  MOVF   39,W
00AD:  XORWF  3D,F
00AE:  BTFSS  3D.7
00AF:  GOTO   0B2
00B0:  BSF    78.7
00B1:  GOTO   0B8
00B2:  BCF    78.7
00B3:  GOTO   0B8
00B4:  CLRF   77
00B5:  CLRF   78
00B6:  CLRF   79
00B7:  CLRF   7A
00B8:  RETURN
00B9:  MOVF   2B,W
00BA:  BTFSC  03.2
00BB:  GOTO   17E
00BC:  MOVWF  37
00BD:  MOVF   2F,W
00BE:  BTFSC  03.2
00BF:  GOTO   17E
00C0:  SUBWF  37,F
00C1:  BTFSS  03.0
00C2:  GOTO   0C8
00C3:  MOVLW  7F
00C4:  ADDWF  37,F
00C5:  BTFSC  03.0
00C6:  GOTO   17E
00C7:  GOTO   0CE
00C8:  MOVLW  81
00C9:  SUBWF  37,F
00CA:  BTFSS  03.0
00CB:  GOTO   17E
00CC:  BTFSC  03.2
00CD:  GOTO   17E
00CE:  MOVF   37,W
00CF:  MOVWF  77
00D0:  CLRF   78
00D1:  CLRF   79
00D2:  CLRF   7A
00D3:  CLRF   36
00D4:  MOVF   2C,W
00D5:  MOVWF  35
00D6:  BSF    35.7
00D7:  MOVF   2D,W
00D8:  MOVWF  34
00D9:  MOVF   2E,W
00DA:  MOVWF  33
00DB:  MOVLW  19
00DC:  MOVWF  37
00DD:  MOVF   32,W
00DE:  SUBWF  33,F
00DF:  BTFSC  03.0
00E0:  GOTO   0F1
00E1:  MOVLW  01
00E2:  SUBWF  34,F
00E3:  BTFSC  03.0
00E4:  GOTO   0F1
00E5:  SUBWF  35,F
00E6:  BTFSC  03.0
00E7:  GOTO   0F1
00E8:  SUBWF  36,F
00E9:  BTFSC  03.0
00EA:  GOTO   0F1
00EB:  INCF   36,F
00EC:  INCF   35,F
00ED:  INCF   34,F
00EE:  MOVF   32,W
00EF:  ADDWF  33,F
00F0:  GOTO   123
00F1:  MOVF   31,W
00F2:  SUBWF  34,F
00F3:  BTFSC  03.0
00F4:  GOTO   10C
00F5:  MOVLW  01
00F6:  SUBWF  35,F
00F7:  BTFSC  03.0
00F8:  GOTO   10C
00F9:  SUBWF  36,F
00FA:  BTFSC  03.0
00FB:  GOTO   10C
00FC:  INCF   36,F
00FD:  INCF   35,F
00FE:  MOVF   31,W
00FF:  ADDWF  34,F
0100:  MOVF   32,W
0101:  ADDWF  33,F
0102:  BTFSS  03.0
0103:  GOTO   123
0104:  INCF   34,F
0105:  BTFSS  03.2
0106:  GOTO   123
0107:  INCF   35,F
0108:  BTFSS  03.2
0109:  GOTO   123
010A:  INCF   36,F
010B:  GOTO   123
010C:  MOVF   30,W
010D:  IORLW  80
010E:  SUBWF  35,F
010F:  BTFSC  03.0
0110:  GOTO   122
0111:  MOVLW  01
0112:  SUBWF  36,F
0113:  BTFSC  03.0
0114:  GOTO   122
0115:  INCF   36,F
0116:  MOVF   30,W
0117:  IORLW  80
0118:  ADDWF  35,F
0119:  MOVF   31,W
011A:  ADDWF  34,F
011B:  BTFSS  03.0
011C:  GOTO   100
011D:  INCF   35,F
011E:  BTFSS  03.2
011F:  GOTO   100
0120:  INCF   36,F
0121:  GOTO   100
0122:  BSF    7A.0
0123:  DECFSZ 37,F
0124:  GOTO   126
0125:  GOTO   131
0126:  BCF    03.0
0127:  RLF    33,F
0128:  RLF    34,F
0129:  RLF    35,F
012A:  RLF    36,F
012B:  BCF    03.0
012C:  RLF    7A,F
012D:  RLF    79,F
012E:  RLF    78,F
012F:  RLF    38,F
0130:  GOTO   0DD
0131:  BTFSS  38.0
0132:  GOTO   139
0133:  BCF    03.0
0134:  RRF    78,F
0135:  RRF    79,F
0136:  RRF    7A,F
0137:  RRF    38,F
0138:  GOTO   13C
0139:  DECF   77,F
013A:  BTFSC  03.2
013B:  GOTO   17E
013C:  BTFSC  38.7
013D:  GOTO   165
013E:  BCF    03.0
013F:  RLF    33,F
0140:  RLF    34,F
0141:  RLF    35,F
0142:  RLF    36,F
0143:  MOVF   32,W
0144:  SUBWF  33,F
0145:  BTFSC  03.0
0146:  GOTO   151
0147:  MOVLW  01
0148:  SUBWF  34,F
0149:  BTFSC  03.0
014A:  GOTO   151
014B:  SUBWF  35,F
014C:  BTFSC  03.0
014D:  GOTO   151
014E:  SUBWF  36,F
014F:  BTFSS  03.0
0150:  GOTO   174
0151:  MOVF   31,W
0152:  SUBWF  34,F
0153:  BTFSC  03.0
0154:  GOTO   15C
0155:  MOVLW  01
0156:  SUBWF  35,F
0157:  BTFSC  03.0
0158:  GOTO   15C
0159:  SUBWF  36,F
015A:  BTFSS  03.0
015B:  GOTO   174
015C:  MOVF   30,W
015D:  IORLW  80
015E:  SUBWF  35,F
015F:  BTFSC  03.0
0160:  GOTO   165
0161:  MOVLW  01
0162:  SUBWF  36,F
0163:  BTFSS  03.0
0164:  GOTO   174
0165:  INCF   7A,F
0166:  BTFSS  03.2
0167:  GOTO   174
0168:  INCF   79,F
0169:  BTFSS  03.2
016A:  GOTO   174
016B:  INCF   78,F
016C:  BTFSS  03.2
016D:  GOTO   174
016E:  INCF   77,F
016F:  BTFSC  03.2
0170:  GOTO   17E
0171:  RRF    78,F
0172:  RRF    79,F
0173:  RRF    7A,F
0174:  MOVF   2C,W
0175:  MOVWF  37
0176:  MOVF   30,W
0177:  XORWF  37,F
0178:  BTFSS  37.7
0179:  GOTO   17C
017A:  BSF    78.7
017B:  GOTO   182
017C:  BCF    78.7
017D:  GOTO   182
017E:  CLRF   77
017F:  CLRF   78
0180:  CLRF   79
0181:  CLRF   7A
0182:  RETURN
0183:  MOVF   0B,W
0184:  MOVWF  28
0185:  BCF    0B.7
0186:  BSF    03.5
0187:  BSF    03.6
0188:  BSF    0C.7
0189:  BSF    0C.0
018A:  NOP
018B:  NOP
018C:  BCF    03.5
018D:  BCF    03.6
018E:  BTFSC  28.7
018F:  BSF    0B.7
0190:  BTFSC  03.0
0191:  GOTO   1BB
0192:  BSF    03.6
0193:  MOVF   0C,W
0194:  ANDLW  7F
0195:  BCF    03.6
0196:  MOVWF  28
0197:  BSF    03.6
0198:  MOVF   0D,W
0199:  BCF    03.6
019A:  MOVWF  29
019B:  BSF    03.6
019C:  MOVF   0F,W
019D:  BCF    03.6
019E:  MOVWF  2A
019F:  MOVF   28,W
01A0:  BTFSS  0C.4
01A1:  GOTO   1A0
01A2:  MOVWF  19
01A3:  MOVF   29,W
01A4:  BSF    03.6
01A5:  MOVWF  0D
01A6:  BCF    03.6
01A7:  MOVF   2A,W
01A8:  BSF    03.6
01A9:  MOVWF  0F
01AA:  BCF    03.6
01AB:  MOVF   0B,W
01AC:  MOVWF  2B
01AD:  BCF    0B.7
01AE:  BSF    03.5
01AF:  BSF    03.6
01B0:  BSF    0C.7
01B1:  BSF    0C.0
01B2:  NOP
01B3:  NOP
01B4:  BCF    03.5
01B5:  BCF    03.6
01B6:  BTFSC  2B.7
01B7:  BSF    0B.7
01B8:  DECFSZ 27,F
01B9:  GOTO   1BB
01BA:  GOTO   1DB
01BB:  BSF    03.6
01BC:  RLF    0C,W
01BD:  RLF    0E,W
01BE:  ANDLW  7F
01BF:  BCF    03.6
01C0:  MOVWF  28
01C1:  BSF    03.6
01C2:  MOVF   0D,W
01C3:  BCF    03.6
01C4:  MOVWF  29
01C5:  BSF    03.6
01C6:  MOVF   0F,W
01C7:  BCF    03.6
01C8:  MOVWF  2A
01C9:  MOVF   28,W
01CA:  BTFSS  0C.4
01CB:  GOTO   1CA
01CC:  MOVWF  19
01CD:  MOVF   29,W
01CE:  BSF    03.6
01CF:  MOVWF  0D
01D0:  BCF    03.6
01D1:  MOVF   2A,W
01D2:  BSF    03.6
01D3:  MOVWF  0F
01D4:  INCF   0D,F
01D5:  BTFSC  03.2
01D6:  INCF   0F,F
01D7:  BCF    03.0
01D8:  BCF    03.6
01D9:  DECFSZ 27,F
01DA:  GOTO   183
01DB:  RETURN
01DC:  BTFSC  03.1
01DD:  GOTO   1E1
01DE:  MOVLW  3C
01DF:  MOVWF  04
01E0:  BCF    03.7
01E1:  CLRF   77
01E2:  CLRF   78
01E3:  CLRF   79
01E4:  CLRF   7A
01E5:  CLRF   3C
01E6:  CLRF   3D
01E7:  CLRF   3E
01E8:  CLRF   3F
01E9:  MOVF   3B,W
01EA:  IORWF  3A,W
01EB:  IORWF  39,W
01EC:  IORWF  38,W
01ED:  BTFSC  03.2
01EE:  GOTO   21F
01EF:  MOVLW  20
01F0:  MOVWF  40
01F1:  BCF    03.0
01F2:  RLF    34,F
01F3:  RLF    35,F
01F4:  RLF    36,F
01F5:  RLF    37,F
01F6:  RLF    3C,F
01F7:  RLF    3D,F
01F8:  RLF    3E,F
01F9:  RLF    3F,F
01FA:  MOVF   3B,W
01FB:  SUBWF  3F,W
01FC:  BTFSS  03.2
01FD:  GOTO   208
01FE:  MOVF   3A,W
01FF:  SUBWF  3E,W
0200:  BTFSS  03.2
0201:  GOTO   208
0202:  MOVF   39,W
0203:  SUBWF  3D,W
0204:  BTFSS  03.2
0205:  GOTO   208
0206:  MOVF   38,W
0207:  SUBWF  3C,W
0208:  BTFSS  03.0
0209:  GOTO   219
020A:  MOVF   38,W
020B:  SUBWF  3C,F
020C:  MOVF   39,W
020D:  BTFSS  03.0
020E:  INCFSZ 39,W
020F:  SUBWF  3D,F
0210:  MOVF   3A,W
0211:  BTFSS  03.0
0212:  INCFSZ 3A,W
0213:  SUBWF  3E,F
0214:  MOVF   3B,W
0215:  BTFSS  03.0
0216:  INCFSZ 3B,W
0217:  SUBWF  3F,F
0218:  BSF    03.0
0219:  RLF    77,F
021A:  RLF    78,F
021B:  RLF    79,F
021C:  RLF    7A,F
021D:  DECFSZ 40,F
021E:  GOTO   1F1
021F:  MOVF   3C,W
0220:  MOVWF  00
0221:  INCF   04,F
0222:  MOVF   3D,W
0223:  MOVWF  00
0224:  INCF   04,F
0225:  MOVF   3E,W
0226:  MOVWF  00
0227:  INCF   04,F
0228:  MOVF   3F,W
0229:  MOVWF  00
022A:  RETURN
022B:  MOVF   04,W
022C:  MOVWF  2C
022D:  MOVF   2B,W
022E:  MOVWF  2E
022F:  BTFSC  03.2
0230:  GOTO   24A
0231:  MOVF   2A,W
0232:  MOVWF  37
0233:  MOVF   29,W
0234:  MOVWF  36
0235:  MOVF   28,W
0236:  MOVWF  35
0237:  MOVF   27,W
0238:  MOVWF  34
0239:  CLRF   3B
023A:  CLRF   3A
023B:  MOVLW  20
023C:  MOVWF  39
023D:  MOVLW  82
023E:  MOVWF  38
023F:  CALL   044
0240:  MOVF   7A,W
0241:  MOVWF  2A
0242:  MOVF   79,W
0243:  MOVWF  29
0244:  MOVF   78,W
0245:  MOVWF  28
0246:  MOVF   77,W
0247:  MOVWF  27
0248:  DECFSZ 2E,F
0249:  GOTO   231
024A:  MOVF   2A,W
024B:  MOVWF  37
024C:  MOVF   29,W
024D:  MOVWF  36
024E:  MOVF   28,W
024F:  MOVWF  35
0250:  MOVF   27,W
0251:  MOVWF  34
0252:  MOVF   34,W
0253:  SUBLW  B6
0254:  MOVWF  34
0255:  CLRF   7A
0256:  MOVF   35,W
0257:  MOVWF  38
0258:  BSF    35.7
0259:  BCF    03.0
025A:  RRF    35,F
025B:  RRF    36,F
025C:  RRF    37,F
025D:  RRF    7A,F
025E:  RRF    79,F
025F:  RRF    78,F
0260:  RRF    77,F
0261:  DECFSZ 34,F
0262:  GOTO   259
0263:  BTFSS  38.7
0264:  GOTO   270
0265:  COMF   77,F
0266:  COMF   78,F
0267:  COMF   79,F
0268:  COMF   7A,F
0269:  INCF   77,F
026A:  BTFSC  03.2
026B:  INCF   78,F
026C:  BTFSC  03.2
026D:  INCF   79,F
026E:  BTFSC  03.2
026F:  INCF   7A,F
0270:  MOVF   7A,W
0271:  MOVWF  2A
0272:  MOVF   79,W
0273:  MOVWF  29
0274:  MOVF   78,W
0275:  MOVWF  28
0276:  MOVF   77,W
0277:  MOVWF  27
0278:  BTFSS  2A.7
0279:  GOTO   287
027A:  DECF   2C,F
027B:  BSF    2C.5
027C:  COMF   27,F
027D:  COMF   28,F
027E:  COMF   29,F
027F:  COMF   2A,F
0280:  INCF   27,F
0281:  BTFSC  03.2
0282:  INCF   28,F
0283:  BTFSC  03.2
0284:  INCF   29,F
0285:  BTFSC  03.2
0286:  INCF   2A,F
0287:  MOVLW  3B
0288:  MOVWF  33
0289:  MOVLW  9A
028A:  MOVWF  32
028B:  MOVLW  CA
028C:  MOVWF  31
028D:  CLRF   30
028E:  MOVLW  0A
028F:  MOVWF  2E
0290:  MOVF   2B,W
0291:  BTFSC  03.2
0292:  INCF   2C,F
0293:  BSF    03.1
0294:  MOVLW  27
0295:  MOVWF  04
0296:  BCF    03.7
0297:  MOVF   2A,W
0298:  MOVWF  37
0299:  MOVF   29,W
029A:  MOVWF  36
029B:  MOVF   28,W
029C:  MOVWF  35
029D:  MOVF   27,W
029E:  MOVWF  34
029F:  MOVF   33,W
02A0:  MOVWF  3B
02A1:  MOVF   32,W
02A2:  MOVWF  3A
02A3:  MOVF   31,W
02A4:  MOVWF  39
02A5:  MOVF   30,W
02A6:  MOVWF  38
02A7:  CALL   1DC
02A8:  MOVF   78,W
02A9:  MOVF   77,F
02AA:  BTFSS  03.2
02AB:  GOTO   2BF
02AC:  INCF   2B,W
02AD:  SUBWF  2E,W
02AE:  BTFSC  03.2
02AF:  GOTO   2BF
02B0:  MOVF   2C,W
02B1:  BTFSC  03.2
02B2:  GOTO   2C1
02B3:  ANDLW  0F
02B4:  SUBWF  2E,W
02B5:  BTFSC  03.2
02B6:  GOTO   2B9
02B7:  BTFSC  03.0
02B8:  GOTO   2F5
02B9:  BTFSC  2C.7
02BA:  GOTO   2F5
02BB:  BTFSC  2C.6
02BC:  GOTO   2C1
02BD:  MOVLW  20
02BE:  GOTO   2F0
02BF:  MOVLW  20
02C0:  ANDWF  2C,F
02C1:  BTFSS  2C.5
02C2:  GOTO   2D0
02C3:  BCF    2C.5
02C4:  MOVF   2B,W
02C5:  BTFSS  03.2
02C6:  DECF   2C,F
02C7:  MOVF   77,W
02C8:  MOVWF  2C
02C9:  MOVLW  2D
02CA:  BTFSS  0C.4
02CB:  GOTO   2CA
02CC:  MOVWF  19
02CD:  MOVF   2C,W
02CE:  MOVWF  77
02CF:  CLRF   2C
02D0:  MOVF   2B,W
02D1:  SUBWF  2E,W
02D2:  BTFSS  03.2
02D3:  GOTO   2DF
02D4:  MOVF   77,W
02D5:  MOVWF  2C
02D6:  MOVLW  2E
02D7:  BTFSS  0C.4
02D8:  GOTO   2D7
02D9:  MOVWF  19
02DA:  MOVF   2C,W
02DB:  MOVWF  77
02DC:  MOVLW  20
02DD:  ANDWF  2C,F
02DE:  MOVLW  00
02DF:  MOVLW  30
02E0:  BTFSS  2C.5
02E1:  GOTO   2F0
02E2:  BCF    2C.5
02E3:  MOVF   2B,W
02E4:  BTFSS  03.2
02E5:  DECF   2C,F
02E6:  MOVF   77,W
02E7:  MOVWF  2C
02E8:  MOVLW  2D
02E9:  BTFSS  0C.4
02EA:  GOTO   2E9
02EB:  MOVWF  19
02EC:  MOVF   2C,W
02ED:  MOVWF  77
02EE:  CLRF   2C
02EF:  MOVLW  30
02F0:  ADDWF  77,F
02F1:  MOVF   77,W
02F2:  BTFSS  0C.4
02F3:  GOTO   2F2
02F4:  MOVWF  19
02F5:  BCF    03.1
02F6:  MOVF   33,W
02F7:  MOVWF  37
02F8:  MOVF   32,W
02F9:  MOVWF  36
02FA:  MOVF   31,W
02FB:  MOVWF  35
02FC:  MOVF   30,W
02FD:  MOVWF  34
02FE:  CLRF   3B
02FF:  CLRF   3A
0300:  CLRF   39
0301:  MOVLW  0A
0302:  MOVWF  38
0303:  CALL   1DC
0304:  MOVF   7A,W
0305:  MOVWF  33
0306:  MOVF   79,W
0307:  MOVWF  32
0308:  MOVF   78,W
0309:  MOVWF  31
030A:  MOVF   77,W
030B:  MOVWF  30
030C:  DECFSZ 2E,F
030D:  GOTO   293
030E:  RETURN
....................  
.................... #list 
....................  
.................... #device ADC=10 
....................  
.................... #FUSES NOWDT                 	//No Watch Dog Timer 
.................... #FUSES NOBROWNOUT            	//No brownout reset 
.................... #FUSES NOLVP                 	//No low voltage prgming, B3(PIC16) or B5(PIC18) used for I/O 
....................  
.................... #use delay(internal=4MHz) 
*
0012:  MOVLW  28
0013:  MOVWF  04
0014:  BCF    03.7
0015:  MOVF   00,W
0016:  BTFSC  03.2
0017:  GOTO   026
0018:  MOVLW  01
0019:  MOVWF  78
001A:  CLRF   77
001B:  DECFSZ 77,F
001C:  GOTO   01B
001D:  DECFSZ 78,F
001E:  GOTO   01A
001F:  MOVLW  4A
0020:  MOVWF  77
0021:  DECFSZ 77,F
0022:  GOTO   021
0023:  GOTO   024
0024:  DECFSZ 00,F
0025:  GOTO   018
0026:  RETURN
.................... #use rs232(baud=9600,parity=N,xmit=PIN_C6,rcv=PIN_C7,bits=8,stream=PORT1) 
....................  
....................  
....................  
.................... void main() 
*
030F:  MOVF   03,W
0310:  ANDLW  1F
0311:  MOVWF  03
0312:  MOVLW  61
0313:  BSF    03.5
0314:  MOVWF  0F
0315:  MOVF   0F,W
0316:  BSF    03.6
0317:  BCF    07.3
0318:  MOVLW  19
0319:  BCF    03.6
031A:  MOVWF  19
031B:  MOVLW  A6
031C:  MOVWF  18
031D:  MOVLW  90
031E:  BCF    03.5
031F:  MOVWF  18
0320:  BSF    03.5
0321:  BSF    03.6
0322:  MOVF   09,W
0323:  ANDLW  C0
0324:  MOVWF  09
0325:  BCF    03.6
0326:  BCF    1F.4
0327:  BCF    1F.5
0328:  MOVLW  00
0329:  BSF    03.6
032A:  MOVWF  08
032B:  BCF    03.5
032C:  CLRF   07
032D:  CLRF   08
032E:  CLRF   09
032F:  BCF    03.7
.................... { 
....................    setup_adc_ports(sAN0|sAN1|sAN2|sAN3); 
0330:  BSF    03.5
0331:  MOVF   09,W
0332:  ANDLW  C0
0333:  MOVWF  09
0334:  BCF    03.6
0335:  BCF    1F.4
0336:  BCF    1F.5
0337:  MOVLW  0F
0338:  BSF    03.6
0339:  MOVWF  08
....................    setup_adc(ADC_CLOCK_DIV_2); 
033A:  BCF    03.5
033B:  BCF    03.6
033C:  BCF    1F.6
033D:  BCF    1F.7
033E:  BSF    03.5
033F:  BSF    1F.7
0340:  BCF    03.5
0341:  BSF    1F.0
....................    float volt; 
....................     
....................    while(TRUE) 
....................    { 
....................       //TODO: User Code 
....................       long int q;    //creamos una variable local de entero largo 
....................       set_adc_channel(0); // seleccionamos el canal del ADC 
0342:  MOVLW  00
0343:  MOVWF  78
0344:  MOVF   1F,W
0345:  ANDLW  C3
0346:  IORWF  78,W
0347:  MOVWF  1F
....................       delay_us(1000); 
0348:  MOVLW  01
0349:  MOVWF  28
034A:  CALL   012
....................       q=read_adc();    // leemos al informacion del ADC 
034B:  BSF    1F.1
034C:  BTFSC  1F.1
034D:  GOTO   34C
034E:  BSF    03.5
034F:  MOVF   1E,W
0350:  BCF    03.5
0351:  MOVWF  25
0352:  MOVF   1E,W
0353:  MOVWF  26
....................       volt=((4.98*q)/1023.0);    // Realizamos nuestro algoritmos para sacar el voltaje 
0354:  MOVF   26,W
0355:  MOVWF  28
0356:  MOVF   25,W
0357:  MOVWF  27
0358:  CALL   027
0359:  MOVLW  29
035A:  MOVWF  37
035B:  MOVLW  5C
035C:  MOVWF  36
035D:  MOVLW  1F
035E:  MOVWF  35
035F:  MOVLW  81
0360:  MOVWF  34
0361:  MOVF   7A,W
0362:  MOVWF  3B
0363:  MOVF   79,W
0364:  MOVWF  3A
0365:  MOVF   78,W
0366:  MOVWF  39
0367:  MOVF   77,W
0368:  MOVWF  38
0369:  CALL   044
036A:  MOVF   7A,W
036B:  MOVWF  2A
036C:  MOVF   79,W
036D:  MOVWF  29
036E:  MOVF   78,W
036F:  MOVWF  28
0370:  MOVF   77,W
0371:  MOVWF  27
0372:  MOVF   7A,W
0373:  MOVWF  2E
0374:  MOVF   79,W
0375:  MOVWF  2D
0376:  MOVF   78,W
0377:  MOVWF  2C
0378:  MOVF   77,W
0379:  MOVWF  2B
037A:  CLRF   32
037B:  MOVLW  C0
037C:  MOVWF  31
037D:  MOVLW  7F
037E:  MOVWF  30
037F:  MOVLW  88
0380:  MOVWF  2F
0381:  CALL   0B9
0382:  MOVF   7A,W
0383:  MOVWF  24
0384:  MOVF   79,W
0385:  MOVWF  23
0386:  MOVF   78,W
0387:  MOVWF  22
0388:  MOVF   77,W
0389:  MOVWF  21
....................       printf("Luz = %1.2f\r\n",volt);    // Envia por el puerto serie la informacion del voltaje 
038A:  MOVLW  04
038B:  BSF    03.6
038C:  MOVWF  0D
038D:  MOVLW  00
038E:  MOVWF  0F
038F:  BCF    03.0
0390:  MOVLW  06
0391:  BCF    03.6
0392:  MOVWF  27
0393:  CALL   183
0394:  MOVLW  89
0395:  MOVWF  04
0396:  MOVF   24,W
0397:  MOVWF  2A
0398:  MOVF   23,W
0399:  MOVWF  29
039A:  MOVF   22,W
039B:  MOVWF  28
039C:  MOVF   21,W
039D:  MOVWF  27
039E:  MOVLW  02
039F:  MOVWF  2B
03A0:  CALL   22B
03A1:  MOVLW  0D
03A2:  BTFSS  0C.4
03A3:  GOTO   3A2
03A4:  MOVWF  19
03A5:  MOVLW  0A
03A6:  BTFSS  0C.4
03A7:  GOTO   3A6
03A8:  MOVWF  19
....................       delay_ms(2000);    // Espera 2 segundos para volver a ejecutar el bucle 
03A9:  MOVLW  08
03AA:  MOVWF  27
03AB:  MOVLW  FA
03AC:  MOVWF  28
03AD:  CALL   012
03AE:  DECFSZ 27,F
03AF:  GOTO   3AB
....................        
....................       set_adc_channel(1); // seleccionamos el canal del ADC 
03B0:  MOVLW  04
03B1:  MOVWF  78
03B2:  MOVF   1F,W
03B3:  ANDLW  C3
03B4:  IORWF  78,W
03B5:  MOVWF  1F
....................       delay_us(1000); 
03B6:  MOVLW  01
03B7:  MOVWF  28
03B8:  CALL   012
....................       q=read_adc();    // leemos al informacion del ADC 
03B9:  BSF    1F.1
03BA:  BTFSC  1F.1
03BB:  GOTO   3BA
03BC:  BSF    03.5
03BD:  MOVF   1E,W
03BE:  BCF    03.5
03BF:  MOVWF  25
03C0:  MOVF   1E,W
03C1:  MOVWF  26
....................       volt=((4.98*q)/1023.0);    // Realizamos nuestro algoritmos para sacar el voltaje 
03C2:  MOVF   26,W
03C3:  MOVWF  28
03C4:  MOVF   25,W
03C5:  MOVWF  27
03C6:  CALL   027
03C7:  MOVLW  29
03C8:  MOVWF  37
03C9:  MOVLW  5C
03CA:  MOVWF  36
03CB:  MOVLW  1F
03CC:  MOVWF  35
03CD:  MOVLW  81
03CE:  MOVWF  34
03CF:  MOVF   7A,W
03D0:  MOVWF  3B
03D1:  MOVF   79,W
03D2:  MOVWF  3A
03D3:  MOVF   78,W
03D4:  MOVWF  39
03D5:  MOVF   77,W
03D6:  MOVWF  38
03D7:  CALL   044
03D8:  MOVF   7A,W
03D9:  MOVWF  2A
03DA:  MOVF   79,W
03DB:  MOVWF  29
03DC:  MOVF   78,W
03DD:  MOVWF  28
03DE:  MOVF   77,W
03DF:  MOVWF  27
03E0:  MOVF   7A,W
03E1:  MOVWF  2E
03E2:  MOVF   79,W
03E3:  MOVWF  2D
03E4:  MOVF   78,W
03E5:  MOVWF  2C
03E6:  MOVF   77,W
03E7:  MOVWF  2B
03E8:  CLRF   32
03E9:  MOVLW  C0
03EA:  MOVWF  31
03EB:  MOVLW  7F
03EC:  MOVWF  30
03ED:  MOVLW  88
03EE:  MOVWF  2F
03EF:  CALL   0B9
03F0:  MOVF   7A,W
03F1:  MOVWF  24
03F2:  MOVF   79,W
03F3:  MOVWF  23
03F4:  MOVF   78,W
03F5:  MOVWF  22
03F6:  MOVF   77,W
03F7:  MOVWF  21
....................       printf("MQ2 = %1.2f\r\n",volt);    // Envia por el puerto serie la informacion del voltaje 
03F8:  MOVLW  0B
03F9:  BSF    03.6
03FA:  MOVWF  0D
03FB:  MOVLW  00
03FC:  MOVWF  0F
03FD:  BCF    03.0
03FE:  MOVLW  06
03FF:  BCF    03.6
0400:  MOVWF  27
0401:  CALL   183
0402:  MOVLW  89
0403:  MOVWF  04
0404:  MOVF   24,W
0405:  MOVWF  2A
0406:  MOVF   23,W
0407:  MOVWF  29
0408:  MOVF   22,W
0409:  MOVWF  28
040A:  MOVF   21,W
040B:  MOVWF  27
040C:  MOVLW  02
040D:  MOVWF  2B
040E:  CALL   22B
040F:  MOVLW  0D
0410:  BTFSS  0C.4
0411:  GOTO   410
0412:  MOVWF  19
0413:  MOVLW  0A
0414:  BTFSS  0C.4
0415:  GOTO   414
0416:  MOVWF  19
....................       delay_ms(2000);    // Espera 2 segundos para volver a ejecutar el bucle 
0417:  MOVLW  08
0418:  MOVWF  27
0419:  MOVLW  FA
041A:  MOVWF  28
041B:  CALL   012
041C:  DECFSZ 27,F
041D:  GOTO   419
041E:  GOTO   342
....................        
....................        
....................    } 
.................... } 
041F:  SLEEP

Configuration Fuses:
   Word  1: 2CE4   INTRC_IO NOWDT PUT MCLR NOPROTECT NOCPD NOBROWNOUT IESO FCMEN NOLVP NODEBUG
   Word  2: 3FFF   BORV40 NOWRT
